target datalayout = "e-m:e-p270:32:32-p271:32:32-p272:64:64-i64:64-i128:128-f80:128-n8:16:32:64-S128"
target triple = "x86_64-pc-linux-gnu"

; Function Attrs: nounwind sspstrong willreturn memory(read) uwtable
define internal i64 @strcasehash(i64 noundef %0) #5 {
  %2 = alloca i64, align 8
  %3 = alloca ptr, align 8
  %4 = alloca i64, align 8
  %5 = alloca i32, align 4
  store i64 %0, ptr %2, align 8, !tbaa !14
  call void @llvm.lifetime.start.p0(i64 8, ptr %3) #23
  %6 = load i64, ptr %2, align 8, !tbaa !14
  %7 = inttoptr i64 %6 to ptr
  store ptr %7, ptr %3, align 8, !tbaa !67
  call void @llvm.lifetime.start.p0(i64 8, ptr %4) #23
  store i64 2166136261, ptr %4, align 8, !tbaa !14
  br label %8

8:                                                ; preds = %23, %1
  %9 = load ptr, ptr %3, align 8, !tbaa !67
  %10 = load i8, ptr %9, align 1, !tbaa !46
  %11 = icmp ne i8 %10, 0
  br i1 %11, label %12, label %30

12:                                               ; preds = %8
  call void @llvm.lifetime.start.p0(i64 4, ptr %5) #23
  %13 = load ptr, ptr %3, align 8, !tbaa !67
  %14 = getelementptr i8, ptr %13, i32 1
  store ptr %14, ptr %3, align 8, !tbaa !67
  %15 = load i8, ptr %13, align 1, !tbaa !46
  %16 = zext i8 %15 to i32
  store i32 %16, ptr %5, align 4, !tbaa !16
  %17 = load i32, ptr %5, align 4, !tbaa !16
  %18 = sub i32 %17, 65
  %19 = icmp ule i32 %18, 25
  br i1 %19, label %20, label %23

20:                                               ; preds = %12
  %21 = load i32, ptr %5, align 4, !tbaa !16
  %22 = add i32 %21, 32
  store i32 %22, ptr %5, align 4, !tbaa !16
  br label %23

23:                                               ; preds = %20, %12
  %24 = load i32, ptr %5, align 4, !tbaa !16
  %25 = zext i32 %24 to i64
  %26 = load i64, ptr %4, align 8, !tbaa !14
  %27 = xor i64 %26, %25
  store i64 %27, ptr %4, align 8, !tbaa !14
  %28 = load i64, ptr %4, align 8, !tbaa !14
  %29 = mul i64 %28, 16777619
  store i64 %29, ptr %4, align 8, !tbaa !14
  call void @llvm.lifetime.end.p0(i64 4, ptr %5) #23
  br label %8, !llvm.loop !75

30:                                               ; preds = %8
  %31 = load i64, ptr %4, align 8, !tbaa !14
  call void @llvm.lifetime.end.p0(i64 8, ptr %4) #23
  call void @llvm.lifetime.end.p0(i64 8, ptr %3) #23
  ret i64 %31
}